target datalayout = "e-m:e-p270:32:32-p271:32:32-p272:64:64-i64:64-i128:128-f80:128-n8:16:32:64-S128"
target triple = "x86_64-pc-linux-gnu"

@.str.1 = private unnamed_addr constant [4 x i8] c"%s\0A\00", align 1
@.str.4 = private unnamed_addr constant [35 x i8] c"Thread with pid %d does not exist\0A\00", align 1
@.str.5 = private unnamed_addr constant [44 x i8] c"ptrace(PTRACE_ATTACH, ..) failed for %d: %s\00", align 1
@.str.6 = private unnamed_addr constant [86 x i8] c"Failed to correctly attach to VM. VM might HANG! [PTRACE_CONT failed, stopped by %d]\0A\00", align 1
@.str.7 = private unnamed_addr constant [63 x i8] c"waitpid(): Child process %d exited/terminated (status = 0x%x)\0A\00", align 1
@.str.8 = private unnamed_addr constant [58 x i8] c"waitpid() failed. Child process pid (%d) does not exist \0A\00", align 1
@.str.9 = private unnamed_addr constant [45 x i8] c"waitpid() failed. Invalid options argument.\0A\00", align 1
@.str.10 = private unnamed_addr constant [39 x i8] c"waitpid() failed. Unexpected error %d\0A\00", align 1
@.str.11 = private unnamed_addr constant [39 x i8] c"ptrace(PTRACE_CONT, ..) failed for %d\0A\00", align 1

; Function Attrs: nounwind uwtable
define internal i32 @ptrace_continue(i32 noundef %0, i32 noundef %1) #0 {
  %3 = alloca i32, align 4
  %4 = alloca i32, align 4
  %5 = alloca i32, align 4
  store i32 %0, ptr %4, align 4
  store i32 %1, ptr %5, align 4
  %6 = load i32, ptr %4, align 4
  %7 = load i32, ptr %5, align 4
  %8 = call i64 (i32, ...) @ptrace(i32 noundef 7, i32 noundef %6, ptr noundef null, i32 noundef %7) #8
  %9 = icmp slt i64 %8, 0
  br i1 %9, label %10, label %12

10:                                               ; preds = %2
  %11 = load i32, ptr %4, align 4
  call void (ptr, ...) @print_debug(ptr noundef @.str.11, i32 noundef %11)
  store i32 0, ptr %3, align 4
  br label %13

12:                                               ; preds = %2
  store i32 1, ptr %3, align 4
  br label %13

13:                                               ; preds = %12, %10
  %14 = load i32, ptr %3, align 4
  ret i32 %14
}

; Function Attrs: nounwind uwtable
define internal i32 @ptrace_waitpid(i32 noundef %0) #0 {
  %2 = alloca i32, align 4
  %3 = alloca i32, align 4
  %4 = alloca i32, align 4
  %5 = alloca i32, align 4
  store i32 %0, ptr %3, align 4
  %6 = call ptr @__errno_location() #10
  store i32 0, ptr %6, align 4
  br label %7

7:                                                ; preds = %58, %51, %1
  %8 = load i32, ptr %3, align 4
  %9 = call i32 @waitpid(i32 noundef %8, ptr noundef %5, i32 noundef 0)
  store i32 %9, ptr %4, align 4
  %10 = load i32, ptr %4, align 4
  %11 = icmp eq i32 %10, -1
  br i1 %11, label %12, label %19

12:                                               ; preds = %7
  %13 = call ptr @__errno_location() #10
  %14 = load i32, ptr %13, align 4
  %15 = icmp eq i32 %14, 10
  br i1 %15, label %16, label %19

16:                                               ; preds = %12
  %17 = load i32, ptr %3, align 4
  %18 = call i32 @waitpid(i32 noundef %17, ptr noundef %5, i32 noundef 1073741824)
  store i32 %18, ptr %4, align 4
  br label %19

19:                                               ; preds = %16, %12, %7
  %20 = load i32, ptr %4, align 4
  %21 = icmp sge i32 %20, 0
  br i1 %21, label %22, label %48

22:                                               ; preds = %19
  %23 = load i32, ptr %5, align 4
  %24 = and i32 %23, 255
  %25 = icmp eq i32 %24, 127
  br i1 %25, label %26, label %44

26:                                               ; preds = %22
  %27 = load i32, ptr %5, align 4
  %28 = and i32 %27, 65280
  %29 = ashr i32 %28, 8
  %30 = icmp eq i32 %29, 19
  br i1 %30, label %31, label %32

31:                                               ; preds = %26
  store i32 0, ptr %2, align 4
  br label %59

32:                                               ; preds = %26
  %33 = load i32, ptr %3, align 4
  %34 = load i32, ptr %5, align 4
  %35 = and i32 %34, 65280
  %36 = ashr i32 %35, 8
  %37 = call i32 @ptrace_continue(i32 noundef %33, i32 noundef %36)
  %38 = icmp ne i32 %37, 0
  br i1 %38, label %43, label %39

39:                                               ; preds = %32
  %40 = load i32, ptr %5, align 4
  %41 = and i32 %40, 65280
  %42 = ashr i32 %41, 8
  call void (ptr, ...) @print_error(ptr noundef @.str.6, i32 noundef %42)
  store i32 1, ptr %2, align 4
  br label %59

43:                                               ; preds = %32
  br label %47

44:                                               ; preds = %22
  %45 = load i32, ptr %3, align 4
  %46 = load i32, ptr %5, align 4
  call void (ptr, ...) @print_debug(ptr noundef @.str.7, i32 noundef %45, i32 noundef %46)
  store i32 2, ptr %2, align 4
  br label %59

47:                                               ; preds = %43
  br label %58

48:                                               ; preds = %19
  %49 = call ptr @__errno_location() #10
  %50 = load i32, ptr %49, align 4
  switch i32 %50, label %55 [
    i32 4, label %51
    i32 10, label %52
    i32 22, label %54
  ]

51:                                               ; preds = %48
  br label %7

52:                                               ; preds = %48
  %53 = load i32, ptr %3, align 4
  call void (ptr, ...) @print_debug(ptr noundef @.str.8, i32 noundef %53)
  store i32 2, ptr %2, align 4
  br label %59

54:                                               ; preds = %48
  call void (ptr, ...) @print_error(ptr noundef @.str.9)
  store i32 1, ptr %2, align 4
  br label %59

55:                                               ; preds = %48
  %56 = call ptr @__errno_location() #10
  %57 = load i32, ptr %56, align 4
  call void (ptr, ...) @print_error(ptr noundef @.str.10, i32 noundef %57)
  store i32 1, ptr %2, align 4
  br label %59

58:                                               ; preds = %47
  br label %7

59:                                               ; preds = %55, %54, %52, %44, %39, %31
  %60 = load i32, ptr %2, align 4
  ret i32 %60
}

; Function Attrs: nounwind uwtable
define internal i32 @ptrace_attach(i32 noundef %0, ptr noundef %1, i64 noundef %2) #0 {
  %4 = alloca i32, align 4
  %5 = alloca i32, align 4
  %6 = alloca ptr, align 8
  %7 = alloca i64, align 8
  %8 = alloca [200 x i8], align 16
  %9 = alloca ptr, align 8
  %10 = alloca i32, align 4
  store i32 %0, ptr %5, align 4
  store ptr %1, ptr %6, align 8
  store i64 %2, ptr %7, align 8
  %11 = call ptr @__errno_location() #10
  store i32 0, ptr %11, align 4
  %12 = load i32, ptr %5, align 4
  %13 = call i64 (i32, ...) @ptrace(i32 noundef 16, i32 noundef %12, ptr noundef null, ptr noundef null) #8
  %14 = icmp slt i64 %13, 0
  br i1 %14, label %15, label %41

15:                                               ; preds = %3
  %16 = call ptr @__errno_location() #10
  %17 = load i32, ptr %16, align 4
  %18 = icmp eq i32 %17, 1
  br i1 %18, label %23, label %19

19:                                               ; preds = %15
  %20 = call ptr @__errno_location() #10
  %21 = load i32, ptr %20, align 4
  %22 = icmp eq i32 %21, 3
  br i1 %22, label %23, label %30

23:                                               ; preds = %19, %15
  %24 = load i32, ptr %5, align 4
  %25 = call i32 @process_doesnt_exist(i32 noundef %24)
  %26 = icmp ne i32 %25, 0
  br i1 %26, label %27, label %29

27:                                               ; preds = %23
  %28 = load i32, ptr %5, align 4
  call void (ptr, ...) @print_debug(ptr noundef @.str.4, i32 noundef %28)
  store i32 2, ptr %4, align 4
  br label %50

29:                                               ; preds = %23
  br label %30

30:                                               ; preds = %29, %19
  %31 = call ptr @__errno_location() #10
  %32 = load i32, ptr %31, align 4
  %33 = getelementptr inbounds [200 x i8], ptr %8, i64 0, i64 0
  %34 = call ptr @strerror_r(i32 noundef %32, ptr noundef %33, i64 noundef 200) #8
  store ptr %34, ptr %9, align 8
  %35 = load ptr, ptr %6, align 8
  %36 = load i64, ptr %7, align 8
  %37 = load i32, ptr %5, align 4
  %38 = load ptr, ptr %9, align 8
  %39 = call i32 (ptr, i64, ptr, ...) @snprintf(ptr noundef %35, i64 noundef %36, ptr noundef @.str.5, i32 noundef %37, ptr noundef %38) #8
  %40 = load ptr, ptr %6, align 8
  call void (ptr, ...) @print_error(ptr noundef @.str.1, ptr noundef %40)
  store i32 1, ptr %4, align 4
  br label %50

41:                                               ; preds = %3
  %42 = load i32, ptr %5, align 4
  %43 = call i32 @ptrace_waitpid(i32 noundef %42)
  store i32 %43, ptr %10, align 4
  %44 = load i32, ptr %10, align 4
  %45 = icmp eq i32 %44, 2
  br i1 %45, label %46, label %48

46:                                               ; preds = %41
  %47 = load i32, ptr %5, align 4
  call void (ptr, ...) @print_debug(ptr noundef @.str.4, i32 noundef %47)
  br label %48

48:                                               ; preds = %46, %41
  %49 = load i32, ptr %10, align 4
  store i32 %49, ptr %4, align 4
  br label %50

50:                                               ; preds = %48, %30, %27
  %51 = load i32, ptr %4, align 4
  ret i32 %51
}