; Function Attrs: nounwind uwtable
define internal fastcc range(i32 0, 3) i32 @ptrace_attach(i32 noundef %0, ptr noundef %1, i64 noundef %2) unnamed_addr #0 {
  %4 = alloca i32, align 4
  %5 = alloca [200 x i8], align 16
  %6 = tail call ptr @__errno_location() #18
  store i32 0, ptr %6, align 4
  %7 = tail call i64 (i32, ...) @ptrace(i32 noundef 16, i32 noundef %0, ptr noundef null, ptr noundef null) #16
  %8 = icmp slt i64 %7, 0
  br i1 %8, label %9, label %18

9:                                                ; preds = %3
  %10 = load i32, ptr %6, align 4
  switch i32 %10, label %14 [
    i32 1, label %11
    i32 3, label %11
  ]

11:                                               ; preds = %9, %9
  %12 = tail call fastcc i32 @process_doesnt_exist(i32 noundef %0)
  %.not = icmp eq i32 %12, 0
  br i1 %.not, label %._crit_edge, label %13

._crit_edge:                                      ; preds = %11
  %.pre = load i32, ptr %6, align 4
  br label %14

13:                                               ; preds = %11
  tail call void (ptr, ...) @print_debug(ptr noundef nonnull @.str.4, i32 noundef %0) #16
  br label %49

14:                                               ; preds = %._crit_edge, %9
  %15 = phi i32 [ %.pre, %._crit_edge ], [ %10, %9 ]
  %16 = call ptr @strerror_r(i32 noundef %15, ptr noundef nonnull %5, i64 noundef 200) #16
  %17 = call i32 (ptr, i64, ptr, ...) @snprintf(ptr noundef %1, i64 noundef %2, ptr noundef nonnull @.str.5, i32 noundef %0, ptr noundef %16) #16
  call void (ptr, ...) @print_error(ptr noundef nonnull @.str.1, ptr noundef %1) #16
  br label %49

18:                                               ; preds = %3
  call void @llvm.lifetime.start.p0(i64 4, ptr nonnull %4)
  store i32 0, ptr %6, align 4
  br label %ptrace_continue.exit.i

ptrace_continue.exit.i:                           ; preds = %ptrace_continue.exit.i.backedge, %18
  %19 = call i32 @waitpid(i32 noundef %0, ptr noundef nonnull %4, i32 noundef 0) #16
  %20 = icmp eq i32 %19, -1
  br i1 %20, label %21, label %26

21:                                               ; preds = %ptrace_continue.exit.i
  %22 = load i32, ptr %6, align 4
  %23 = icmp eq i32 %22, 10
  br i1 %23, label %24, label %.thread.i

24:                                               ; preds = %21
  %25 = call i32 @waitpid(i32 noundef %0, ptr noundef nonnull %4, i32 noundef 1073741824) #16
  br label %26

26:                                               ; preds = %24, %ptrace_continue.exit.i
  %.0.i = phi i32 [ %25, %24 ], [ %19, %ptrace_continue.exit.i ]
  %27 = icmp sgt i32 %.0.i, -1
  br i1 %27, label %28, label %thread-pre-split.i

28:                                               ; preds = %26
  %29 = load i32, ptr %4, align 4
  %30 = and i32 %29, 255
  %31 = icmp eq i32 %30, 127
  br i1 %31, label %32, label %43

32:                                               ; preds = %28
  %33 = lshr i32 %29, 8
  %34 = and i32 %33, 255
  %35 = icmp eq i32 %34, 19
  br i1 %35, label %ptrace_waitpid.exit.thread, label %36

36:                                               ; preds = %32
  %37 = call i64 (i32, ...) @ptrace(i32 noundef 7, i32 noundef %0, ptr noundef null, i32 noundef %34) #16
  %38 = icmp slt i64 %37, 0
  br i1 %38, label %39, label %ptrace_continue.exit.i.backedge

39:                                               ; preds = %36
  call void (ptr, ...) @print_debug(ptr noundef nonnull @.str.11, i32 noundef %0) #16
  %40 = load i32, ptr %4, align 4
  %41 = lshr i32 %40, 8
  %42 = and i32 %41, 255
  call void (ptr, ...) @print_error(ptr noundef nonnull @.str.6, i32 noundef %42) #16
  br label %ptrace_waitpid.exit.thread

43:                                               ; preds = %28
  call void (ptr, ...) @print_debug(ptr noundef nonnull @.str.7, i32 noundef %0, i32 noundef %29) #16
  br label %48

thread-pre-split.i:                               ; preds = %26
  %.pr.i = load i32, ptr %6, align 4
  br label %.thread.i

.thread.i:                                        ; preds = %thread-pre-split.i, %21
  %44 = phi i32 [ %.pr.i, %thread-pre-split.i ], [ %22, %21 ]
  switch i32 %44, label %47 [
    i32 4, label %ptrace_continue.exit.i.backedge
    i32 10, label %45
    i32 22, label %46
  ]

ptrace_continue.exit.i.backedge:                  ; preds = %.thread.i, %36
  br label %ptrace_continue.exit.i

45:                                               ; preds = %.thread.i
  call void (ptr, ...) @print_debug(ptr noundef nonnull @.str.8, i32 noundef %0) #16
  br label %48

46:                                               ; preds = %.thread.i
  call void (ptr, ...) @print_error(ptr noundef nonnull @.str.9) #16
  br label %ptrace_waitpid.exit.thread

47:                                               ; preds = %.thread.i
  call void (ptr, ...) @print_error(ptr noundef nonnull @.str.10, i32 noundef %44) #16
  br label %ptrace_waitpid.exit.thread

ptrace_waitpid.exit.thread:                       ; preds = %32, %39, %47, %46
  %.08.i.ph = phi i32 [ 1, %46 ], [ 1, %47 ], [ 1, %39 ], [ 0, %32 ]
  call void @llvm.lifetime.end.p0(i64 4, ptr nonnull %4)
  br label %49

48:                                               ; preds = %45, %43
  call void @llvm.lifetime.end.p0(i64 4, ptr nonnull %4)
  call void (ptr, ...) @print_debug(ptr noundef nonnull @.str.4, i32 noundef %0) #16
  br label %49

49:                                               ; preds = %ptrace_waitpid.exit.thread, %48, %14, %13
  %.0 = phi i32 [ 2, %13 ], [ 1, %14 ], [ 2, %48 ], [ %.08.i.ph, %ptrace_waitpid.exit.thread ]
  ret i32 %.0
}